Certificate:
    Data:
        Version: 3 (0x2)
        Serial Number: 1 (0x1)
        Signature Algorithm: md5WithRSAEncryption
        Issuer: C=BE, ST=Liege, L=Neupre, O=HEP R Sualem, OU=Dept. Informatique, CN=Tusset Dimartino/emailAddress=philippe.dimartino@student.hepl.be
        Validity
            Not Before: Jan 19 12:35:56 2018 GMT
            Not After : Jan 19 12:35:56 2019 GMT
        Subject: C=BE, ST=Liege, O=HEP R Sualem, OU=Dept. Informatique (Serveur_Payment), CN=Tusset Dimartino
        Subject Public Key Info:
            Public Key Algorithm: dsaEncryption
            DSA Public Key:
                pub: 
                    1d:db:d1:32:2e:53:f4:c5:a3:b2:23:06:6d:de:09:
                    3e:de:a7:91:15:0f:49:98:34:e3:bf:a2:36:35:b6:
                    78:8e:72:7a:ed:36:d0:ac:ca:06:9c:af:06:a3:8e:
                    b2:a6:4c:06:21:f6:36:02:5c:63:76:31:89:38:b8:
                    ad:8c:c1:e9:72:3a:ea:b0:73:b5:af:e3:f5:fb:f0:
                    64:98:2b:58:22:ee:30:b0:a5:89:9a:e9:b7:87:f6:
                    bf:91:22:07:a6:88:61:f5:b5:77:ca:05:7d:e2:08:
                    f2:38:a5:0e:af:14:94:f2:e9:71:e6:64:3b:59:0f:
                    06:8d:94:fb:dc:0f:b9:e0
                P:   
                    00:fd:7f:53:81:1d:75:12:29:52:df:4a:9c:2e:ec:
                    e4:e7:f6:11:b7:52:3c:ef:44:00:c3:1e:3f:80:b6:
                    51:26:69:45:5d:40:22:51:fb:59:3d:8d:58:fa:bf:
                    c5:f5:ba:30:f6:cb:9b:55:6c:d7:81:3b:80:1d:34:
                    6f:f2:66:60:b7:6b:99:50:a5:a4:9f:9f:e8:04:7b:
                    10:22:c2:4f:bb:a9:d7:fe:b7:c6:1b:f8:3b:57:e7:
                    c6:a8:a6:15:0f:04:fb:83:f6:d3:c5:1e:c3:02:35:
                    54:13:5a:16:91:32:f6:75:f3:ae:2b:61:d7:2a:ef:
                    f2:22:03:19:9d:d1:48:01:c7
                Q:   
                    00:97:60:50:8f:15:23:0b:cc:b2:92:b9:82:a2:eb:
                    84:0b:f0:58:1c:f5
                G:   
                    00:f7:e1:a0:85:d6:9b:3d:de:cb:bc:ab:5c:36:b8:
                    57:b9:79:94:af:bb:fa:3a:ea:82:f9:57:4c:0b:3d:
                    07:82:67:51:59:57:8e:ba:d4:59:4f:e6:71:07:10:
                    81:80:b4:49:16:71:23:e8:4c:28:16:13:b7:cf:09:
                    32:8c:c8:a6:e1:3c:16:7a:8b:54:7c:8d:28:e0:a3:
                    ae:1e:2b:b3:a6:75:91:6e:a3:7f:0b:fa:21:35:62:
                    f1:fb:62:7a:01:24:3b:cc:a4:f1:be:a8:51:90:89:
                    a8:83:df:e1:5a:e5:9f:06:92:8b:66:5e:80:7b:55:
                    25:64:01:4c:3b:fe:cf:49:2a
        X509v3 extensions:
            X509v3 Basic Constraints: 
                CA:FALSE
            Netscape Comment: 
                OpenSSL Generated Certificate
            X509v3 Subject Key Identifier: 
                02:59:6E:3F:E9:B5:DA:97:5D:F9:4A:1C:4C:AA:1E:66:4F:77:60:5B
            X509v3 Authority Key Identifier: 
                keyid:B0:F4:AC:E1:E6:C5:11:36:D1:9D:46:5E:5F:CC:9D:26:9B:AA:71:CC
                DirName:/C=BE/ST=Liege/L=Neupre/O=HEP R Sualem/OU=Dept. Informatique/CN=Tusset Dimartino/emailAddress=philippe.dimartino@student.hepl.be
                serial:00

    Signature Algorithm: md5WithRSAEncryption
        88:a4:10:92:ee:99:a5:59:1a:87:0a:6c:a5:5b:29:65:41:00:
        86:be:9e:68:68:08:0d:79:87:79:9c:76:9b:c5:3c:78:62:1e:
        3f:f1:d1:b6:b3:fe:19:b2:a8:db:6c:53:f3:8f:51:48:12:ba:
        f8:01:ca:5f:3e:3a:c9:83:56:02:f7:71:19:d8:df:61:b5:dd:
        df:88:81:a0:ea:1c:19:e3:ad:51:93:d5:90:5b:00:de:25:ea:
        27:20:3f:6b:69:f3:33:ea:36:6b:76:fd:11:6f:b5:36:5a:f4:
        45:f6:9b:0c:09:06:cd:7c:21:d8:d8:26:ec:65:a6:3f:2e:d8:
        34:a3
-----BEGIN CERTIFICATE-----
MIIE/DCCBGWgAwIBAgIBATANBgkqhkiG9w0BAQQFADCBsDELMAkGA1UEBhMCQkUx
DjAMBgNVBAgTBUxpZWdlMQ8wDQYDVQQHEwZOZXVwcmUxFTATBgNVBAoTDEhFUCBS
IFN1YWxlbTEbMBkGA1UECxMSRGVwdC4gSW5mb3JtYXRpcXVlMRkwFwYDVQQDExBU
dXNzZXQgRGltYXJ0aW5vMTEwLwYJKoZIhvcNAQkBFiJwaGlsaXBwZS5kaW1hcnRp
bm9Ac3R1ZGVudC5oZXBsLmJlMB4XDTE4MDExOTEyMzU1NloXDTE5MDExOTEyMzU1
NlowfjELMAkGA1UEBhMCQkUxDjAMBgNVBAgTBUxpZWdlMRUwEwYDVQQKEwxIRVAg
UiBTdWFsZW0xLTArBgNVBAsMJERlcHQuIEluZm9ybWF0aXF1ZSAoU2VydmV1cl9Q
YXltZW50KTEZMBcGA1UEAxMQVHVzc2V0IERpbWFydGlubzCCAbcwggEsBgcqhkjO
OAQBMIIBHwKBgQD9f1OBHXUSKVLfSpwu7OTn9hG3UjzvRADDHj+AtlEmaUVdQCJR
+1k9jVj6v8X1ujD2y5tVbNeBO4AdNG/yZmC3a5lQpaSfn+gEexAiwk+7qdf+t8Yb
+DtX58aophUPBPuD9tPFHsMCNVQTWhaRMvZ1864rYdcq7/IiAxmd0UgBxwIVAJdg
UI8VIwvMspK5gqLrhAvwWBz1AoGBAPfhoIXWmz3ey7yrXDa4V7l5lK+7+jrqgvlX
TAs9B4JnUVlXjrrUWU/mcQcQgYC0SRZxI+hMKBYTt88JMozIpuE8FnqLVHyNKOCj
rh4rs6Z1kW6jfwv6ITVi8ftiegEkO8yk8b6oUZCJqIPf4VrlnwaSi2ZegHtVJWQB
TDv+z0kqA4GEAAKBgB3b0TIuU/TFo7IjBm3eCT7ep5EVD0mYNOO/ojY1tniOcnrt
NtCsygacrwajjrKmTAYh9jYCXGN2MYk4uK2MwelyOuqwc7Wv4/X78GSYK1gi7jCw
pYma6beH9r+RIgemiGH1tXfKBX3iCPI4pQ6vFJTy6XHmZDtZDwaNlPvcD7ngo4IB
PDCCATgwCQYDVR0TBAIwADAsBglghkgBhvhCAQ0EHxYdT3BlblNTTCBHZW5lcmF0
ZWQgQ2VydGlmaWNhdGUwHQYDVR0OBBYEFAJZbj/ptdqXXflKHEyqHmZPd2BbMIHd
BgNVHSMEgdUwgdKAFLD0rOHmxRE20Z1GXl/MnSabqnHMoYG2pIGzMIGwMQswCQYD
VQQGEwJCRTEOMAwGA1UECBMFTGllZ2UxDzANBgNVBAcTBk5ldXByZTEVMBMGA1UE
ChMMSEVQIFIgU3VhbGVtMRswGQYDVQQLExJEZXB0LiBJbmZvcm1hdGlxdWUxGTAX
BgNVBAMTEFR1c3NldCBEaW1hcnRpbm8xMTAvBgkqhkiG9w0BCQEWInBoaWxpcHBl
LmRpbWFydGlub0BzdHVkZW50LmhlcGwuYmWCAQAwDQYJKoZIhvcNAQEEBQADgYEA
iKQQku6ZpVkahwpspVspZUEAhr6eaGgIDXmHeZx2m8U8eGIeP/HRtrP+GbKo22xT
849RSBK6+AHKXz46yYNWAvdxGdjfYbXd34iBoOocGeOtUZPVkFsA3iXqJyA/a2nz
M+o2a3b9EW+1Nlr0RfabDAkGzXwh2Ngm7GWmPy7YNKM=
-----END CERTIFICATE-----
